; Function Attrs: mustprogress nounwind uwtable
define void @_ZN11dtPathQueueD2Ev(ptr noundef nonnull align 8 captures(none) dereferenceable(600) %0) unnamed_addr #1 align 2 personality ptr @__gxx_personality_v0 {
  %2 = getelementptr inbounds nuw i8, ptr %0, i64 592
  %3 = load ptr, ptr %2, align 8
  invoke void @_Z18dtFreeNavMeshQueryP14dtNavMeshQuery(ptr noundef %3)
          to label %.noexc unwind label %.loopexit.split-lp

.noexc:                                           ; preds = %1
  store ptr null, ptr %2, align 8
  br label %4

4:                                                ; preds = %.noexc1, %.noexc
  %indvars.iv.i = phi i64 [ 0, %.noexc ], [ %indvars.iv.next.i, %.noexc1 ]
  %5 = getelementptr inbounds nuw [8 x %"struct.dtPathQueue::PathQuery"], ptr %0, i64 0, i64 %indvars.iv.i, i32 5
  %6 = load ptr, ptr %5, align 8
  invoke void @_Z6dtFreePv(ptr noundef %6)
          to label %.noexc1 unwind label %.loopexit

.noexc1:                                          ; preds = %4
  store ptr null, ptr %5, align 8
  %indvars.iv.next.i = add nuw nsw i64 %indvars.iv.i, 1
  %exitcond.not.i = icmp eq i64 %indvars.iv.next.i, 8
  br i1 %exitcond.not.i, label %_ZN11dtPathQueue5purgeEv.exit, label %4, !llvm.loop !6

_ZN11dtPathQueue5purgeEv.exit:                    ; preds = %.noexc1
  ret void

.loopexit:                                        ; preds = %4
  %lpad.loopexit = landingpad { ptr, i32 }
          catch ptr null
  br label %7

.loopexit.split-lp:                               ; preds = %1
  %lpad.loopexit.split-lp = landingpad { ptr, i32 }
          catch ptr null
  br label %7

7:                                                ; preds = %.loopexit.split-lp, %.loopexit
  %lpad.phi = phi { ptr, i32 } [ %lpad.loopexit, %.loopexit ], [ %lpad.loopexit.split-lp, %.loopexit.split-lp ]
  %8 = extractvalue { ptr, i32 } %lpad.phi, 0
  tail call void @__clang_call_terminate(ptr %8) #11
  unreachable
}